; Function Attrs: nounwind uwtable
define range(i32 -22, 1) i32 @CVodeSetRootDirection(ptr noundef readonly %0, ptr noundef readonly captures(none) %1) local_unnamed_addr #0 {
  %3 = icmp eq ptr %0, null
  br i1 %3, label %4, label %5

4:                                                ; preds = %2
  tail call void (ptr, i32, i32, ptr, ptr, ptr, ...) @cvProcessError(ptr noundef null, i32 noundef -21, i32 noundef 880, ptr noundef nonnull @__func__.CVodeSetRootDirection, ptr noundef nonnull @.str, ptr noundef nonnull @.str.1) #7
  br label %.loopexit

5:                                                ; preds = %2
  %6 = getelementptr inbounds nuw i8, ptr %0, i64 1384
  %7 = load i32, ptr %6, align 8
  %8 = icmp eq i32 %7, 0
  br i1 %8, label %11, label %.preheader

.preheader:                                       ; preds = %5
  %9 = icmp sgt i32 %7, 0
  br i1 %9, label %.lr.ph, label %.loopexit

.lr.ph:                                           ; preds = %.preheader
  %10 = getelementptr inbounds nuw i8, ptr %0, i64 1400
  %wide.trip.count = zext nneg i32 %7 to i64
  br label %12

11:                                               ; preds = %5
  tail call void (ptr, i32, i32, ptr, ptr, ptr, ...) @cvProcessError(ptr noundef null, i32 noundef -22, i32 noundef 889, ptr noundef nonnull @__func__.CVodeSetRootDirection, ptr noundef nonnull @.str, ptr noundef nonnull @.str.13) #7
  br label %.loopexit

12:                                               ; preds = %.lr.ph, %12
  %indvars.iv = phi i64 [ 0, %.lr.ph ], [ %indvars.iv.next, %12 ]
  %13 = getelementptr inbounds nuw i32, ptr %1, i64 %indvars.iv
  %14 = load i32, ptr %13, align 4
  %15 = load ptr, ptr %10, align 8
  %16 = getelementptr inbounds nuw i32, ptr %15, i64 %indvars.iv
  store i32 %14, ptr %16, align 4
  %indvars.iv.next = add nuw nsw i64 %indvars.iv, 1
  %exitcond.not = icmp eq i64 %indvars.iv.next, %wide.trip.count
  br i1 %exitcond.not, label %.loopexit, label %12

.loopexit:                                        ; preds = %12, %.preheader, %11, %4
  %.0 = phi i32 [ -21, %4 ], [ -22, %11 ], [ 0, %.preheader ], [ 0, %12 ]
  ret i32 %.0
}